target datalayout = "e-m:e-p270:32:32-p271:32:32-p272:64:64-i64:64-i128:128-f80:128-n8:16:32:64-S128"
target triple = "x86_64-pc-linux-gnu"

%struct.PHP_WHIRLPOOL_CTX = type { [8 x i64], [32 x i8], %struct.anon }
%struct.anon = type { i32, i32, [64 x i8] }
%struct._php_hashcontext_object = type { ptr, ptr, i64, ptr, %struct._zend_object }
%struct._zend_object = type { %struct._zend_refcounted_h, i32, ptr, ptr, ptr, [1 x %struct._zval_struct] }
%struct._zend_refcounted_h = type { i32, %union.anon }
%union.anon = type { i32 }
%struct._zval_struct = type { %union._zend_value, %union.anon.1, %union.anon.4 }
%union._zend_value = type { i64 }
%union.anon.1 = type { i32 }
%union.anon.4 = type { i32 }

@.str.1 = private unnamed_addr constant [12 x i8] c"q8b32iib64.\00", align 1

; Function Attrs: nounwind uwtable
define internal i32 @php_whirlpool_unserialize(ptr noundef %0, i64 noundef %1, ptr noundef %2) #0 {
  %4 = alloca i32, align 4
  %5 = alloca ptr, align 8
  %6 = alloca i64, align 8
  %7 = alloca ptr, align 8
  %8 = alloca ptr, align 8
  %9 = alloca i32, align 4
  store ptr %0, ptr %5, align 8
  store i64 %1, ptr %6, align 8
  store ptr %2, ptr %7, align 8
  %10 = load ptr, ptr %5, align 8
  %11 = getelementptr inbounds %struct._php_hashcontext_object, ptr %10, i32 0, i32 1
  %12 = load ptr, ptr %11, align 8
  store ptr %12, ptr %8, align 8
  store i32 -1, ptr %9, align 4
  %13 = load i64, ptr %6, align 8
  %14 = icmp eq i64 %13, 2
  br i1 %14, label %15, label %56

15:                                               ; preds = %3
  %16 = load ptr, ptr %5, align 8
  %17 = load ptr, ptr %7, align 8
  %18 = call i32 @php_hash_unserialize_spec(ptr noundef %16, ptr noundef %17, ptr noundef @.str.1)
  store i32 %18, ptr %9, align 4
  %19 = icmp eq i32 %18, 0
  br i1 %19, label %20, label %56

20:                                               ; preds = %15
  %21 = load ptr, ptr %8, align 8
  %22 = getelementptr inbounds %struct.PHP_WHIRLPOOL_CTX, ptr %21, i32 0, i32 2
  %23 = getelementptr inbounds %struct.anon, ptr %22, i32 0, i32 0
  %24 = load i32, ptr %23, align 8
  %25 = icmp sge i32 %24, 0
  br i1 %25, label %26, label %56

26:                                               ; preds = %20
  %27 = load ptr, ptr %8, align 8
  %28 = getelementptr inbounds %struct.PHP_WHIRLPOOL_CTX, ptr %27, i32 0, i32 2
  %29 = getelementptr inbounds %struct.anon, ptr %28, i32 0, i32 0
  %30 = load i32, ptr %29, align 8
  %31 = icmp slt i32 %30, 64
  br i1 %31, label %32, label %56

32:                                               ; preds = %26
  %33 = load ptr, ptr %8, align 8
  %34 = getelementptr inbounds %struct.PHP_WHIRLPOOL_CTX, ptr %33, i32 0, i32 2
  %35 = getelementptr inbounds %struct.anon, ptr %34, i32 0, i32 1
  %36 = load i32, ptr %35, align 4
  %37 = load ptr, ptr %8, align 8
  %38 = getelementptr inbounds %struct.PHP_WHIRLPOOL_CTX, ptr %37, i32 0, i32 2
  %39 = getelementptr inbounds %struct.anon, ptr %38, i32 0, i32 0
  %40 = load i32, ptr %39, align 8
  %41 = mul nsw i32 %40, 8
  %42 = icmp sge i32 %36, %41
  br i1 %42, label %43, label %56

43:                                               ; preds = %32
  %44 = load ptr, ptr %8, align 8
  %45 = getelementptr inbounds %struct.PHP_WHIRLPOOL_CTX, ptr %44, i32 0, i32 2
  %46 = getelementptr inbounds %struct.anon, ptr %45, i32 0, i32 1
  %47 = load i32, ptr %46, align 4
  %48 = load ptr, ptr %8, align 8
  %49 = getelementptr inbounds %struct.PHP_WHIRLPOOL_CTX, ptr %48, i32 0, i32 2
  %50 = getelementptr inbounds %struct.anon, ptr %49, i32 0, i32 0
  %51 = load i32, ptr %50, align 8
  %52 = mul nsw i32 %51, 8
  %53 = add nsw i32 %52, 8
  %54 = icmp slt i32 %47, %53
  br i1 %54, label %55, label %56

55:                                               ; preds = %43
  store i32 0, ptr %4, align 4
  br label %64

56:                                               ; preds = %43, %32, %26, %20, %15, %3
  %57 = load i32, ptr %9, align 4
  %58 = icmp ne i32 %57, 0
  br i1 %58, label %59, label %61

59:                                               ; preds = %56
  %60 = load i32, ptr %9, align 4
  br label %62

61:                                               ; preds = %56
  br label %62

62:                                               ; preds = %61, %59
  %63 = phi i32 [ %60, %59 ], [ -2000, %61 ]
  store i32 %63, ptr %4, align 4
  br label %64

64:                                               ; preds = %62, %55
  %65 = load i32, ptr %4, align 4
  ret i32 %65
}