; Function Attrs: nounwind uwtable
define internal i32 @php_whirlpool_unserialize(ptr noundef %0, i64 noundef %1, ptr noundef %2) #2 {
  %4 = getelementptr inbounds i8, ptr %0, i64 8
  %5 = load ptr, ptr %4, align 8
  %6 = icmp eq i64 %1, 2
  br i1 %6, label %7, label %19

7:                                                ; preds = %3
  %8 = tail call i32 @php_hash_unserialize_spec(ptr noundef nonnull %0, ptr noundef %2, ptr noundef nonnull @.str.1) #6
  %9 = icmp eq i32 %8, 0
  br i1 %9, label %10, label %19

10:                                               ; preds = %7
  %11 = getelementptr inbounds i8, ptr %5, i64 96
  %12 = load i32, ptr %11, align 8
  %or.cond = icmp ult i32 %12, 64
  br i1 %or.cond, label %13, label %19

13:                                               ; preds = %10
  %14 = getelementptr inbounds i8, ptr %5, i64 100
  %15 = load i32, ptr %14, align 4
  %16 = shl nuw nsw i32 %12, 3
  %.not = icmp sge i32 %15, %16
  %17 = add nuw nsw i32 %16, 8
  %18 = icmp slt i32 %15, %17
  %or.cond19 = select i1 %.not, i1 %18, i1 false
  %spec.select = select i1 %or.cond19, i32 0, i32 -2000
  br label %19

19:                                               ; preds = %13, %7, %3, %10
  %.012 = phi i32 [ %8, %7 ], [ -1, %3 ], [ -2000, %10 ], [ %spec.select, %13 ]
  ret i32 %.012
}